target datalayout = "e-m:e-p270:32:32-p271:32:32-p272:64:64-i64:64-i128:128-f80:128-n8:16:32:64-S128"
target triple = "x86_64-pc-linux-gnu"

; Function Attrs: mustprogress nounwind uwtable
define noundef zeroext i1 @_ZN5folly10SSLContext9matchNameEPKcS2_i(ptr noundef %0, ptr noundef %1, i32 noundef %2) #1 align 2 {
  %4 = alloca ptr, align 8
  %5 = alloca ptr, align 8
  %6 = alloca i32, align 4
  %7 = alloca i8, align 1
  %8 = alloca i32, align 4
  %9 = alloca i32, align 4
  store ptr %0, ptr %4, align 8, !tbaa !91
  store ptr %1, ptr %5, align 8, !tbaa !91
  store i32 %2, ptr %6, align 4, !tbaa !77
  call void @llvm.lifetime.start.p0(i64 1, ptr %7) #26
  store i8 0, ptr %7, align 1, !tbaa !87
  call void @llvm.lifetime.start.p0(i64 4, ptr %8) #26
  store i32 0, ptr %8, align 4, !tbaa !77
  call void @llvm.lifetime.start.p0(i64 4, ptr %9) #26
  store i32 0, ptr %9, align 4, !tbaa !77
  br label %10

10:                                               ; preds = %75, %40, %3
  %11 = load i32, ptr %8, align 4, !tbaa !77
  %12 = load i32, ptr %6, align 4, !tbaa !77
  %13 = icmp slt i32 %11, %12
  br i1 %13, label %14, label %22

14:                                               ; preds = %10
  %15 = load ptr, ptr %4, align 8, !tbaa !91
  %16 = load i32, ptr %9, align 4, !tbaa !77
  %17 = sext i32 %16 to i64
  %18 = getelementptr inbounds i8, ptr %15, i64 %17
  %19 = load i8, ptr %18, align 1, !tbaa !162
  %20 = sext i8 %19 to i32
  %21 = icmp ne i32 %20, 0
  br label %22

22:                                               ; preds = %14, %10
  %23 = phi i1 [ false, %10 ], [ %21, %14 ]
  br i1 %23, label %24, label %79

24:                                               ; preds = %22
  %25 = load ptr, ptr %5, align 8, !tbaa !91
  %26 = load i32, ptr %8, align 4, !tbaa !77
  %27 = sext i32 %26 to i64
  %28 = getelementptr inbounds i8, ptr %25, i64 %27
  %29 = load i8, ptr %28, align 1, !tbaa !162
  %30 = sext i8 %29 to i32
  %31 = call i32 @toupper(i32 noundef %30) #30
  %32 = load ptr, ptr %4, align 8, !tbaa !91
  %33 = load i32, ptr %9, align 4, !tbaa !77
  %34 = sext i32 %33 to i64
  %35 = getelementptr inbounds i8, ptr %32, i64 %34
  %36 = load i8, ptr %35, align 1, !tbaa !162
  %37 = sext i8 %36 to i32
  %38 = call i32 @toupper(i32 noundef %37) #30
  %39 = icmp eq i32 %31, %38
  br i1 %39, label %40, label %45

40:                                               ; preds = %24
  %41 = load i32, ptr %8, align 4, !tbaa !77
  %42 = add nsw i32 %41, 1
  store i32 %42, ptr %8, align 4, !tbaa !77
  %43 = load i32, ptr %9, align 4, !tbaa !77
  %44 = add nsw i32 %43, 1
  store i32 %44, ptr %9, align 4, !tbaa !77
  br label %10, !llvm.loop !760

45:                                               ; preds = %24
  %46 = load ptr, ptr %5, align 8, !tbaa !91
  %47 = load i32, ptr %8, align 4, !tbaa !77
  %48 = sext i32 %47 to i64
  %49 = getelementptr inbounds i8, ptr %46, i64 %48
  %50 = load i8, ptr %49, align 1, !tbaa !162
  %51 = sext i8 %50 to i32
  %52 = icmp eq i32 %51, 42
  br i1 %52, label %53, label %78

53:                                               ; preds = %45
  br label %54

54:                                               ; preds = %72, %53
  %55 = load ptr, ptr %4, align 8, !tbaa !91
  %56 = load i32, ptr %9, align 4, !tbaa !77
  %57 = sext i32 %56 to i64
  %58 = getelementptr inbounds i8, ptr %55, i64 %57
  %59 = load i8, ptr %58, align 1, !tbaa !162
  %60 = sext i8 %59 to i32
  %61 = icmp ne i32 %60, 46
  br i1 %61, label %62, label %70

62:                                               ; preds = %54
  %63 = load ptr, ptr %4, align 8, !tbaa !91
  %64 = load i32, ptr %9, align 4, !tbaa !77
  %65 = sext i32 %64 to i64
  %66 = getelementptr inbounds i8, ptr %63, i64 %65
  %67 = load i8, ptr %66, align 1, !tbaa !162
  %68 = sext i8 %67 to i32
  %69 = icmp ne i32 %68, 0
  br label %70

70:                                               ; preds = %62, %54
  %71 = phi i1 [ false, %54 ], [ %69, %62 ]
  br i1 %71, label %72, label %75

72:                                               ; preds = %70
  %73 = load i32, ptr %9, align 4, !tbaa !77
  %74 = add nsw i32 %73, 1
  store i32 %74, ptr %9, align 4, !tbaa !77
  br label %54, !llvm.loop !761

75:                                               ; preds = %70
  %76 = load i32, ptr %8, align 4, !tbaa !77
  %77 = add nsw i32 %76, 1
  store i32 %77, ptr %8, align 4, !tbaa !77
  br label %10, !llvm.loop !760

78:                                               ; preds = %45
  br label %79

79:                                               ; preds = %78, %22
  %80 = load i32, ptr %8, align 4, !tbaa !77
  %81 = load i32, ptr %6, align 4, !tbaa !77
  %82 = icmp eq i32 %80, %81
  br i1 %82, label %83, label %92

83:                                               ; preds = %79
  %84 = load ptr, ptr %4, align 8, !tbaa !91
  %85 = load i32, ptr %9, align 4, !tbaa !77
  %86 = sext i32 %85 to i64
  %87 = getelementptr inbounds i8, ptr %84, i64 %86
  %88 = load i8, ptr %87, align 1, !tbaa !162
  %89 = sext i8 %88 to i32
  %90 = icmp eq i32 %89, 0
  br i1 %90, label %91, label %92

91:                                               ; preds = %83
  store i8 1, ptr %7, align 1, !tbaa !87
  br label %92

92:                                               ; preds = %91, %83, %79
  %93 = load i8, ptr %7, align 1, !tbaa !87, !range !88, !noundef !89
  %94 = trunc i8 %93 to i1
  call void @llvm.lifetime.end.p0(i64 4, ptr %9) #26
  call void @llvm.lifetime.end.p0(i64 4, ptr %8) #26
  call void @llvm.lifetime.end.p0(i64 1, ptr %7) #26
  ret i1 %94
}