; Function Attrs: mustprogress nofree nounwind willreturn memory(read) uwtable
define noundef zeroext i1 @_ZN5folly10SSLContext9matchNameEPKcS2_i(ptr noundef readonly captures(none) %0, ptr noundef readonly captures(none) %1, i32 noundef %2) local_unnamed_addr #23 align 2 {
  %4 = icmp sgt i32 %2, 0
  br i1 %4, label %.lr.ph.preheader, label %.critedge

.lr.ph.preheader:                                 ; preds = %3
  %wide.trip.count = zext nneg i32 %2 to i64
  br label %.lr.ph

.lr.ph:                                           ; preds = %.lr.ph.preheader, %.backedge
  %indvars.iv40 = phi i64 [ 0, %.lr.ph.preheader ], [ %indvars.iv.next41, %.backedge ]
  %.031 = phi i32 [ 0, %.lr.ph.preheader ], [ %.0.be, %.backedge ]
  %5 = sext i32 %.031 to i64
  %6 = getelementptr inbounds i8, ptr %0, i64 %5
  %7 = load i8, ptr %6, align 1, !tbaa !80
  %.not = icmp eq i8 %7, 0
  br i1 %.not, label %.critedge.loopexit.split.loop.exit46, label %8

8:                                                ; preds = %.lr.ph
  %9 = sext i8 %7 to i32
  %10 = getelementptr inbounds nuw i8, ptr %1, i64 %indvars.iv40
  %11 = load i8, ptr %10, align 1, !tbaa !80
  %12 = sext i8 %11 to i32
  %13 = tail call i32 @toupper(i32 noundef %12) #34
  %14 = tail call i32 @toupper(i32 noundef %9) #34
  %15 = icmp eq i32 %13, %14
  br i1 %15, label %16, label %18

16:                                               ; preds = %8
  %17 = add nsw i32 %.031, 1
  br label %.backedge

.backedge:                                        ; preds = %16, %.critedge2
  %.0.be = phi i32 [ %17, %16 ], [ %22, %.critedge2 ]
  %indvars.iv.next41 = add nuw nsw i64 %indvars.iv40, 1
  %exitcond.not = icmp eq i64 %indvars.iv.next41, %wide.trip.count
  br i1 %exitcond.not, label %.critedge.loopexit, label %.lr.ph, !llvm.loop !276

18:                                               ; preds = %8
  %19 = icmp eq i8 %11, 42
  br i1 %19, label %.preheader, label %.critedge.loopexit.split.loop.exit43

.preheader:                                       ; preds = %18, %21
  %20 = phi i8 [ %.pre, %21 ], [ %7, %18 ]
  %indvars.iv = phi i64 [ %indvars.iv.next, %21 ], [ %5, %18 ]
  switch i8 %20, label %21 [
    i8 46, label %.critedge2
    i8 0, label %.critedge2
  ]

21:                                               ; preds = %.preheader
  %indvars.iv.next = add nsw i64 %indvars.iv, 1
  %.phi.trans.insert = getelementptr inbounds i8, ptr %0, i64 %indvars.iv.next
  %.pre = load i8, ptr %.phi.trans.insert, align 1, !tbaa !80
  br label %.preheader, !llvm.loop !277

.critedge2:                                       ; preds = %.preheader, %.preheader
  %22 = trunc nsw i64 %indvars.iv to i32
  br label %.backedge

.critedge.loopexit.split.loop.exit43:             ; preds = %18
  %23 = trunc nuw nsw i64 %indvars.iv40 to i32
  br label %.critedge.loopexit

.critedge.loopexit.split.loop.exit46:             ; preds = %.lr.ph
  %24 = trunc nuw nsw i64 %indvars.iv40 to i32
  br label %.critedge.loopexit

.critedge.loopexit:                               ; preds = %.backedge, %.critedge.loopexit.split.loop.exit46, %.critedge.loopexit.split.loop.exit43
  %.024.lcssa.ph = phi i32 [ %23, %.critedge.loopexit.split.loop.exit43 ], [ %24, %.critedge.loopexit.split.loop.exit46 ], [ %2, %.backedge ]
  %.0.lcssa.ph = phi i32 [ %.031, %.critedge.loopexit.split.loop.exit43 ], [ %.031, %.critedge.loopexit.split.loop.exit46 ], [ %.0.be, %.backedge ]
  %25 = sext i32 %.0.lcssa.ph to i64
  br label %.critedge

.critedge:                                        ; preds = %.critedge.loopexit, %3
  %.024.lcssa = phi i32 [ 0, %3 ], [ %.024.lcssa.ph, %.critedge.loopexit ]
  %.0.lcssa = phi i64 [ 0, %3 ], [ %25, %.critedge.loopexit ]
  %26 = icmp eq i32 %.024.lcssa, %2
  br i1 %26, label %27, label %31

27:                                               ; preds = %.critedge
  %28 = getelementptr inbounds i8, ptr %0, i64 %.0.lcssa
  %29 = load i8, ptr %28, align 1, !tbaa !80
  %30 = icmp eq i8 %29, 0
  br label %31

31:                                               ; preds = %27, %.critedge
  %.025 = phi i1 [ false, %.critedge ], [ %30, %27 ]
  ret i1 %.025
}